target datalayout = "e-m:e-p270:32:32-p271:32:32-p272:64:64-i64:64-i128:128-f80:128-n8:16:32:64-S128"
target triple = "x86_64-pc-linux-gnu"

%struct.mspack_system = type { ptr, ptr, ptr, ptr, ptr, ptr, ptr, ptr, ptr, ptr, ptr }
%struct.mscabd_file = type { ptr, ptr, i32, i32, i8, i8, i8, i8, i8, i32, ptr, i32 }
%struct.mscabd_folder = type { ptr, i32, i32 }
%struct.mscabd_folder_p = type { %struct.mscabd_folder, %struct.mscabd_folder_data, ptr, ptr }
%struct.mscabd_folder_data = type { ptr, ptr, i64 }

@.str.9 = private unnamed_addr constant [52 x i8] c"WARNING; merged file %s not listed in both cabinets\00", align 1

; Function Attrs: nounwind uwtable
define internal i32 @cabd_can_merge_folders(ptr noundef %0, ptr noundef %1, ptr noundef %2) #0 {
  %4 = alloca i32, align 4
  %5 = alloca ptr, align 8
  %6 = alloca ptr, align 8
  %7 = alloca ptr, align 8
  %8 = alloca ptr, align 8
  %9 = alloca ptr, align 8
  %10 = alloca ptr, align 8
  %11 = alloca ptr, align 8
  %12 = alloca i32, align 4
  %13 = alloca i32, align 4
  store ptr %0, ptr %5, align 8, !tbaa !3
  store ptr %1, ptr %6, align 8, !tbaa !82
  store ptr %2, ptr %7, align 8, !tbaa !82
  call void @llvm.lifetime.start.p0(i64 8, ptr %8) #4
  call void @llvm.lifetime.start.p0(i64 8, ptr %9) #4
  call void @llvm.lifetime.start.p0(i64 8, ptr %10) #4
  call void @llvm.lifetime.start.p0(i64 8, ptr %11) #4
  call void @llvm.lifetime.start.p0(i64 4, ptr %12) #4
  store i32 1, ptr %12, align 4, !tbaa !48
  %14 = load ptr, ptr %6, align 8, !tbaa !82
  %15 = getelementptr inbounds nuw %struct.mscabd_folder_p, ptr %14, i32 0, i32 0
  %16 = getelementptr inbounds nuw %struct.mscabd_folder, ptr %15, i32 0, i32 1
  %17 = load i32, ptr %16, align 8, !tbaa !98
  %18 = load ptr, ptr %7, align 8, !tbaa !82
  %19 = getelementptr inbounds nuw %struct.mscabd_folder_p, ptr %18, i32 0, i32 0
  %20 = getelementptr inbounds nuw %struct.mscabd_folder, ptr %19, i32 0, i32 1
  %21 = load i32, ptr %20, align 8, !tbaa !98
  %22 = icmp ne i32 %17, %21
  br i1 %22, label %23, label %24

23:                                               ; preds = %3
  store i32 0, ptr %4, align 4
  store i32 1, ptr %13, align 4
  br label %135

24:                                               ; preds = %3
  %25 = load ptr, ptr %6, align 8, !tbaa !82
  %26 = getelementptr inbounds nuw %struct.mscabd_folder_p, ptr %25, i32 0, i32 0
  %27 = getelementptr inbounds nuw %struct.mscabd_folder, ptr %26, i32 0, i32 2
  %28 = load i32, ptr %27, align 4, !tbaa !86
  %29 = load ptr, ptr %7, align 8, !tbaa !82
  %30 = getelementptr inbounds nuw %struct.mscabd_folder_p, ptr %29, i32 0, i32 0
  %31 = getelementptr inbounds nuw %struct.mscabd_folder, ptr %30, i32 0, i32 2
  %32 = load i32, ptr %31, align 4, !tbaa !86
  %33 = add i32 %28, %32
  %34 = icmp ugt i32 %33, 65535
  br i1 %34, label %35, label %36

35:                                               ; preds = %24
  store i32 0, ptr %4, align 4
  store i32 1, ptr %13, align 4
  br label %135

36:                                               ; preds = %24
  %37 = load ptr, ptr %6, align 8, !tbaa !82
  %38 = getelementptr inbounds nuw %struct.mscabd_folder_p, ptr %37, i32 0, i32 3
  %39 = load ptr, ptr %38, align 8, !tbaa !125
  store ptr %39, ptr %8, align 8, !tbaa !52
  %40 = icmp ne ptr %39, null
  br i1 %40, label %41, label %46

41:                                               ; preds = %36
  %42 = load ptr, ptr %7, align 8, !tbaa !82
  %43 = getelementptr inbounds nuw %struct.mscabd_folder_p, ptr %42, i32 0, i32 2
  %44 = load ptr, ptr %43, align 8, !tbaa !85
  store ptr %44, ptr %9, align 8, !tbaa !52
  %45 = icmp ne ptr %44, null
  br i1 %45, label %47, label %46

46:                                               ; preds = %41, %36
  store i32 0, ptr %4, align 4
  store i32 1, ptr %13, align 4
  br label %135

47:                                               ; preds = %41
  %48 = load ptr, ptr %8, align 8, !tbaa !52
  store ptr %48, ptr %10, align 8, !tbaa !52
  %49 = load ptr, ptr %9, align 8, !tbaa !52
  store ptr %49, ptr %11, align 8, !tbaa !52
  br label %50

50:                                               ; preds = %74, %47
  %51 = load ptr, ptr %10, align 8, !tbaa !52
  %52 = icmp ne ptr %51, null
  br i1 %52, label %53, label %81

53:                                               ; preds = %50
  %54 = load ptr, ptr %11, align 8, !tbaa !52
  %55 = icmp ne ptr %54, null
  br i1 %55, label %56, label %72

56:                                               ; preds = %53
  %57 = load ptr, ptr %10, align 8, !tbaa !52
  %58 = getelementptr inbounds nuw %struct.mscabd_file, ptr %57, i32 0, i32 11
  %59 = load i32, ptr %58, align 8, !tbaa !83
  %60 = load ptr, ptr %11, align 8, !tbaa !52
  %61 = getelementptr inbounds nuw %struct.mscabd_file, ptr %60, i32 0, i32 11
  %62 = load i32, ptr %61, align 8, !tbaa !83
  %63 = icmp ne i32 %59, %62
  br i1 %63, label %72, label %64

64:                                               ; preds = %56
  %65 = load ptr, ptr %10, align 8, !tbaa !52
  %66 = getelementptr inbounds nuw %struct.mscabd_file, ptr %65, i32 0, i32 2
  %67 = load i32, ptr %66, align 8, !tbaa !84
  %68 = load ptr, ptr %11, align 8, !tbaa !52
  %69 = getelementptr inbounds nuw %struct.mscabd_file, ptr %68, i32 0, i32 2
  %70 = load i32, ptr %69, align 8, !tbaa !84
  %71 = icmp ne i32 %67, %70
  br i1 %71, label %72, label %73

72:                                               ; preds = %64, %56, %53
  store i32 0, ptr %12, align 4, !tbaa !48
  br label %81

73:                                               ; preds = %64
  br label %74

74:                                               ; preds = %73
  %75 = load ptr, ptr %10, align 8, !tbaa !52
  %76 = getelementptr inbounds nuw %struct.mscabd_file, ptr %75, i32 0, i32 0
  %77 = load ptr, ptr %76, align 8, !tbaa !53
  store ptr %77, ptr %10, align 8, !tbaa !52
  %78 = load ptr, ptr %11, align 8, !tbaa !52
  %79 = getelementptr inbounds nuw %struct.mscabd_file, ptr %78, i32 0, i32 0
  %80 = load ptr, ptr %79, align 8, !tbaa !53
  store ptr %80, ptr %11, align 8, !tbaa !52
  br label %50

81:                                               ; preds = %72, %50
  %82 = load i32, ptr %12, align 4, !tbaa !48
  %83 = icmp ne i32 %82, 0
  br i1 %83, label %84, label %85

84:                                               ; preds = %81
  store i32 1, ptr %4, align 4
  store i32 1, ptr %13, align 4
  br label %135

85:                                               ; preds = %81
  store i32 0, ptr %12, align 4, !tbaa !48
  %86 = load ptr, ptr %8, align 8, !tbaa !52
  store ptr %86, ptr %10, align 8, !tbaa !52
  br label %87

87:                                               ; preds = %129, %85
  %88 = load ptr, ptr %10, align 8, !tbaa !52
  %89 = icmp ne ptr %88, null
  br i1 %89, label %90, label %133

90:                                               ; preds = %87
  %91 = load ptr, ptr %9, align 8, !tbaa !52
  store ptr %91, ptr %11, align 8, !tbaa !52
  br label %92

92:                                               ; preds = %113, %90
  %93 = load ptr, ptr %11, align 8, !tbaa !52
  %94 = icmp ne ptr %93, null
  br i1 %94, label %95, label %117

95:                                               ; preds = %92
  %96 = load ptr, ptr %10, align 8, !tbaa !52
  %97 = getelementptr inbounds nuw %struct.mscabd_file, ptr %96, i32 0, i32 11
  %98 = load i32, ptr %97, align 8, !tbaa !83
  %99 = load ptr, ptr %11, align 8, !tbaa !52
  %100 = getelementptr inbounds nuw %struct.mscabd_file, ptr %99, i32 0, i32 11
  %101 = load i32, ptr %100, align 8, !tbaa !83
  %102 = icmp eq i32 %98, %101
  br i1 %102, label %103, label %112

103:                                              ; preds = %95
  %104 = load ptr, ptr %10, align 8, !tbaa !52
  %105 = getelementptr inbounds nuw %struct.mscabd_file, ptr %104, i32 0, i32 2
  %106 = load i32, ptr %105, align 8, !tbaa !84
  %107 = load ptr, ptr %11, align 8, !tbaa !52
  %108 = getelementptr inbounds nuw %struct.mscabd_file, ptr %107, i32 0, i32 2
  %109 = load i32, ptr %108, align 8, !tbaa !84
  %110 = icmp eq i32 %106, %109
  br i1 %110, label %111, label %112

111:                                              ; preds = %103
  br label %117

112:                                              ; preds = %103, %95
  br label %113

113:                                              ; preds = %112
  %114 = load ptr, ptr %11, align 8, !tbaa !52
  %115 = getelementptr inbounds nuw %struct.mscabd_file, ptr %114, i32 0, i32 0
  %116 = load ptr, ptr %115, align 8, !tbaa !53
  store ptr %116, ptr %11, align 8, !tbaa !52
  br label %92

117:                                              ; preds = %111, %92
  %118 = load ptr, ptr %11, align 8, !tbaa !52
  %119 = icmp ne ptr %118, null
  br i1 %119, label %120, label %121

120:                                              ; preds = %117
  store i32 1, ptr %12, align 4, !tbaa !48
  br label %128

121:                                              ; preds = %117
  %122 = load ptr, ptr %5, align 8, !tbaa !3
  %123 = getelementptr inbounds nuw %struct.mspack_system, ptr %122, i32 0, i32 6
  %124 = load ptr, ptr %123, align 8, !tbaa !80
  %125 = load ptr, ptr %10, align 8, !tbaa !52
  %126 = getelementptr inbounds nuw %struct.mscabd_file, ptr %125, i32 0, i32 1
  %127 = load ptr, ptr %126, align 8, !tbaa !56
  call void (ptr, ptr, ...) %124(ptr noundef null, ptr noundef @.str.9, ptr noundef %127)
  br label %128

128:                                              ; preds = %121, %120
  br label %129

129:                                              ; preds = %128
  %130 = load ptr, ptr %10, align 8, !tbaa !52
  %131 = getelementptr inbounds nuw %struct.mscabd_file, ptr %130, i32 0, i32 0
  %132 = load ptr, ptr %131, align 8, !tbaa !53
  store ptr %132, ptr %10, align 8, !tbaa !52
  br label %87

133:                                              ; preds = %87
  %134 = load i32, ptr %12, align 4, !tbaa !48
  store i32 %134, ptr %4, align 4
  store i32 1, ptr %13, align 4
  br label %135

135:                                              ; preds = %133, %84, %46, %35, %23
  call void @llvm.lifetime.end.p0(i64 4, ptr %12) #4
  call void @llvm.lifetime.end.p0(i64 8, ptr %11) #4
  call void @llvm.lifetime.end.p0(i64 8, ptr %10) #4
  call void @llvm.lifetime.end.p0(i64 8, ptr %9) #4
  call void @llvm.lifetime.end.p0(i64 8, ptr %8) #4
  %136 = load i32, ptr %4, align 4
  ret i32 %136
}