; Function Attrs: nounwind uwtable
define internal fastcc range(i32 0, 2) i32 @cabd_can_merge_folders(ptr noundef readonly captures(none) %0, ptr noundef readonly captures(none) %1, ptr noundef readonly captures(none) %2) unnamed_addr #0 {
  %4 = getelementptr inbounds nuw i8, ptr %1, i64 8
  %5 = load i32, ptr %4, align 8, !tbaa !90
  %6 = getelementptr inbounds nuw i8, ptr %2, i64 8
  %7 = load i32, ptr %6, align 8, !tbaa !90
  %.not = icmp eq i32 %5, %7
  br i1 %.not, label %8, label %.critedge

8:                                                ; preds = %3
  %9 = getelementptr inbounds nuw i8, ptr %1, i64 12
  %10 = load i32, ptr %9, align 4, !tbaa !81
  %11 = getelementptr inbounds nuw i8, ptr %2, i64 12
  %12 = load i32, ptr %11, align 4, !tbaa !81
  %13 = add i32 %12, %10
  %14 = icmp ugt i32 %13, 65535
  br i1 %14, label %.critedge, label %15

15:                                               ; preds = %8
  %16 = getelementptr inbounds nuw i8, ptr %1, i64 48
  %17 = load ptr, ptr %16, align 8, !tbaa !111
  %.not38 = icmp eq ptr %17, null
  br i1 %.not38, label %.critedge, label %18

18:                                               ; preds = %15
  %19 = getelementptr inbounds nuw i8, ptr %2, i64 40
  %20 = load ptr, ptr %19, align 8, !tbaa !80
  %.not39 = icmp eq ptr %20, null
  br i1 %.not39, label %.critedge, label %.preheader49

.preheader49:                                     ; preds = %18, %31
  %.03152 = phi ptr [ %33, %31 ], [ %20, %18 ]
  %.03351 = phi ptr [ %32, %31 ], [ %17, %18 ]
  %.not41 = icmp eq ptr %.03152, null
  br i1 %.not41, label %34, label %21

21:                                               ; preds = %.preheader49
  %22 = getelementptr inbounds nuw i8, ptr %.03351, i64 48
  %23 = load i32, ptr %22, align 8, !tbaa !78
  %24 = getelementptr inbounds nuw i8, ptr %.03152, i64 48
  %25 = load i32, ptr %24, align 8, !tbaa !78
  %.not42 = icmp eq i32 %23, %25
  br i1 %.not42, label %26, label %34

26:                                               ; preds = %21
  %27 = getelementptr inbounds nuw i8, ptr %.03351, i64 16
  %28 = load i32, ptr %27, align 8, !tbaa !79
  %29 = getelementptr inbounds nuw i8, ptr %.03152, i64 16
  %30 = load i32, ptr %29, align 8, !tbaa !79
  %.not43 = icmp eq i32 %28, %30
  br i1 %.not43, label %31, label %34

31:                                               ; preds = %26
  %32 = load ptr, ptr %.03351, align 8, !tbaa !40
  %33 = load ptr, ptr %.03152, align 8, !tbaa !40
  %.not40.not = icmp eq ptr %32, null
  br i1 %.not40.not, label %.critedge, label %.preheader49

34:                                               ; preds = %.preheader49, %21, %26
  %35 = getelementptr inbounds nuw i8, ptr %0, i64 48
  br label %.preheader

.preheader:                                       ; preds = %34, %.loopexit
  %.155 = phi i32 [ 0, %34 ], [ %.2, %.loopexit ]
  %.13454 = phi ptr [ %17, %34 ], [ %53, %.loopexit ]
  %36 = getelementptr inbounds nuw i8, ptr %.13454, i64 48
  %37 = load i32, ptr %36, align 8, !tbaa !78
  %38 = getelementptr inbounds nuw i8, ptr %.13454, i64 16
  br label %39

39:                                               ; preds = %.preheader, %48
  %.13253 = phi ptr [ %20, %.preheader ], [ %49, %48 ]
  %40 = getelementptr inbounds nuw i8, ptr %.13253, i64 48
  %41 = load i32, ptr %40, align 8, !tbaa !78
  %42 = icmp eq i32 %37, %41
  br i1 %42, label %43, label %48

43:                                               ; preds = %39
  %44 = load i32, ptr %38, align 8, !tbaa !79
  %45 = getelementptr inbounds nuw i8, ptr %.13253, i64 16
  %46 = load i32, ptr %45, align 8, !tbaa !79
  %47 = icmp eq i32 %44, %46
  br i1 %47, label %.loopexit, label %48

48:                                               ; preds = %39, %43
  %49 = load ptr, ptr %.13253, align 8, !tbaa !40
  %.not46 = icmp eq ptr %49, null
  br i1 %.not46, label %.critedge48, label %39

.critedge48:                                      ; preds = %48
  %50 = load ptr, ptr %35, align 8, !tbaa !72
  %51 = getelementptr inbounds nuw i8, ptr %.13454, i64 8
  %52 = load ptr, ptr %51, align 8, !tbaa !43
  tail call void (ptr, ptr, ...) %50(ptr noundef null, ptr noundef nonnull @.str.9, ptr noundef %52) #8
  br label %.loopexit

.loopexit:                                        ; preds = %43, %.critedge48
  %.2 = phi i32 [ %.155, %.critedge48 ], [ 1, %43 ]
  %53 = load ptr, ptr %.13454, align 8, !tbaa !40
  %.not45 = icmp eq ptr %53, null
  br i1 %.not45, label %.critedge, label %.preheader

.critedge:                                        ; preds = %31, %.loopexit, %15, %18, %8, %3
  %.035 = phi i32 [ 0, %3 ], [ 0, %8 ], [ 0, %18 ], [ 0, %15 ], [ %.2, %.loopexit ], [ 1, %31 ]
  ret i32 %.035
}